target datalayout = "e-m:e-p270:32:32-p271:32:32-p272:64:64-i64:64-i128:128-f80:128-n8:16:32:64-S128"
target triple = "x86_64-pc-linux-gnu"

%struct.PACKET = type { ptr, i64 }
%struct.quic_pkt_hdr_st = type { i32, i32, %struct.quic_conn_id_st, %struct.quic_conn_id_st, [4 x i8], ptr, i64, i64, ptr }
%struct.quic_conn_id_st = type { i8, [20 x i8] }

@.str.5 = private unnamed_addr constant [33 x i8] c"../openssl/test/quic_wire_test.c\00", align 1
@.str.176 = private unnamed_addr constant [60 x i8] c"PACKET_buf_init(&pkt, retry_encoded, sizeof(retry_encoded))\00", align 1
@retry_encoded = internal constant [36 x i8] c"\FF\00\00\00\01\00\08\F0g\A5P*Bb\B5token\04\A2e\BA.\FFM\82\90X\FB?\0F$\96\BA", align 16
@.str.177 = private unnamed_addr constant [63 x i8] c"ossl_quic_wire_decode_pkt_hdr(&pkt, 0, 0, 0, &hdr, NULL, NULL)\00", align 1
@.str.178 = private unnamed_addr constant [9 x i8] c"hdr.type\00", align 1
@.str.179 = private unnamed_addr constant [20 x i8] c"QUIC_PKT_TYPE_RETRY\00", align 1
@.str.180 = private unnamed_addr constant [85 x i8] c"ossl_quic_calculate_retry_integrity_tag(NULL, NULL, &hdr, &retry_orig_dcid, got_tag)\00", align 1
@.str.181 = private unnamed_addr constant [8 x i8] c"got_tag\00", align 1
@.str.182 = private unnamed_addr constant [69 x i8] c"retry_encoded + sizeof(retry_encoded) - QUIC_RETRY_INTEGRITY_TAG_LEN\00", align 1
@.str.183 = private unnamed_addr constant [75 x i8] c"ossl_quic_validate_retry_integrity_tag(NULL, NULL, &hdr, &retry_orig_dcid)\00", align 1
@retry_orig_dcid = internal constant { i8, <{ [8 x i8], [12 x i8] }> } { i8 8, <{ [8 x i8], [12 x i8] }> <{ [8 x i8] c"\83\94\C8\F0>QW\08", [12 x i8] zeroinitializer }> }, align 1

; Function Attrs: inlinehint nounwind uwtable
define internal i32 @PACKET_buf_init(ptr noundef %0, ptr noundef %1, i64 noundef %2) #3 {
  %4 = alloca i32, align 4
  %5 = alloca ptr, align 8
  %6 = alloca ptr, align 8
  %7 = alloca i64, align 8
  store ptr %0, ptr %5, align 8, !tbaa !40
  store ptr %1, ptr %6, align 8, !tbaa !39
  store i64 %2, ptr %7, align 8, !tbaa !19
  %8 = load i64, ptr %7, align 8, !tbaa !19
  %9 = icmp ugt i64 %8, 9223372036854775807
  br i1 %9, label %10, label %11

10:                                               ; preds = %3
  store i32 0, ptr %4, align 4
  br label %18

11:                                               ; preds = %3
  %12 = load ptr, ptr %6, align 8, !tbaa !39
  %13 = load ptr, ptr %5, align 8, !tbaa !40
  %14 = getelementptr inbounds nuw %struct.PACKET, ptr %13, i32 0, i32 0
  store ptr %12, ptr %14, align 8, !tbaa !41
  %15 = load i64, ptr %7, align 8, !tbaa !19
  %16 = load ptr, ptr %5, align 8, !tbaa !40
  %17 = getelementptr inbounds nuw %struct.PACKET, ptr %16, i32 0, i32 1
  store i64 %15, ptr %17, align 8, !tbaa !43
  store i32 1, ptr %4, align 4
  br label %18

18:                                               ; preds = %11, %10
  %19 = load i32, ptr %4, align 4
  ret i32 %19
}

; Function Attrs: nounwind uwtable
define internal i32 @test_wire_retry_integrity_tag() #0 {
  %1 = alloca i32, align 4
  %2 = alloca %struct.PACKET, align 8
  %3 = alloca %struct.quic_pkt_hdr_st, align 8
  %4 = alloca [16 x i8], align 16
  call void @llvm.lifetime.start.p0(i64 4, ptr %1) #5
  store i32 0, ptr %1, align 4, !tbaa !4
  call void @llvm.lifetime.start.p0(i64 16, ptr %2) #5
  call void @llvm.memset.p0.i64(ptr align 8 %2, i8 0, i64 16, i1 false)
  call void @llvm.lifetime.start.p0(i64 88, ptr %3) #5
  call void @llvm.memset.p0.i64(ptr align 8 %3, i8 0, i64 88, i1 false)
  call void @llvm.lifetime.start.p0(i64 16, ptr %4) #5
  call void @llvm.memset.p0.i64(ptr align 16 %4, i8 0, i64 16, i1 false)
  %5 = call i32 @PACKET_buf_init(ptr noundef %2, ptr noundef @retry_encoded, i64 noundef 36)
  %6 = icmp ne i32 %5, 0
  %7 = zext i1 %6 to i32
  %8 = call i32 @test_true(ptr noundef @.str.5, i32 noundef 1542, ptr noundef @.str.176, i32 noundef %7)
  %9 = icmp ne i32 %8, 0
  br i1 %9, label %11, label %10

10:                                               ; preds = %0
  br label %45

11:                                               ; preds = %0
  %12 = call i32 @ossl_quic_wire_decode_pkt_hdr(ptr noundef %2, i64 noundef 0, i32 noundef 0, i32 noundef 0, ptr noundef %3, ptr noundef null, ptr noundef null)
  %13 = icmp ne i32 %12, 0
  %14 = zext i1 %13 to i32
  %15 = call i32 @test_true(ptr noundef @.str.5, i32 noundef 1545, ptr noundef @.str.177, i32 noundef %14)
  %16 = icmp ne i32 %15, 0
  br i1 %16, label %18, label %17

17:                                               ; preds = %11
  br label %45

18:                                               ; preds = %11
  %19 = load i32, ptr %3, align 8
  %20 = and i32 %19, 255
  %21 = call i32 @test_int_eq(ptr noundef @.str.5, i32 noundef 1548, ptr noundef @.str.178, ptr noundef @.str.179, i32 noundef %20, i32 noundef 4)
  %22 = icmp ne i32 %21, 0
  br i1 %22, label %24, label %23

23:                                               ; preds = %18
  br label %45

24:                                               ; preds = %18
  %25 = getelementptr inbounds [16 x i8], ptr %4, i64 0, i64 0
  %26 = call i32 @ossl_quic_calculate_retry_integrity_tag(ptr noundef null, ptr noundef null, ptr noundef %3, ptr noundef @retry_orig_dcid, ptr noundef %25)
  %27 = icmp ne i32 %26, 0
  %28 = zext i1 %27 to i32
  %29 = call i32 @test_true(ptr noundef @.str.5, i32 noundef 1553, ptr noundef @.str.180, i32 noundef %28)
  %30 = icmp ne i32 %29, 0
  br i1 %30, label %32, label %31

31:                                               ; preds = %24
  br label %45

32:                                               ; preds = %24
  %33 = getelementptr inbounds [16 x i8], ptr %4, i64 0, i64 0
  %34 = call i32 @test_mem_eq(ptr noundef @.str.5, i32 noundef 1559, ptr noundef @.str.181, ptr noundef @.str.182, ptr noundef %33, i64 noundef 16, ptr noundef getelementptr inbounds (i8, ptr getelementptr inbounds nuw (i8, ptr @retry_encoded, i64 36), i64 -16), i64 noundef 16)
  %35 = icmp ne i32 %34, 0
  br i1 %35, label %37, label %36

36:                                               ; preds = %32
  br label %45

37:                                               ; preds = %32
  %38 = call i32 @ossl_quic_validate_retry_integrity_tag(ptr noundef null, ptr noundef null, ptr noundef %3, ptr noundef @retry_orig_dcid)
  %39 = icmp ne i32 %38, 0
  %40 = zext i1 %39 to i32
  %41 = call i32 @test_true(ptr noundef @.str.5, i32 noundef 1563, ptr noundef @.str.183, i32 noundef %40)
  %42 = icmp ne i32 %41, 0
  br i1 %42, label %44, label %43

43:                                               ; preds = %37
  br label %45

44:                                               ; preds = %37
  store i32 1, ptr %1, align 4, !tbaa !4
  br label %45

45:                                               ; preds = %44, %43, %36, %31, %23, %17, %10
  %46 = load i32, ptr %1, align 4, !tbaa !4
  call void @llvm.lifetime.end.p0(i64 16, ptr %4) #5
  call void @llvm.lifetime.end.p0(i64 88, ptr %3) #5
  call void @llvm.lifetime.end.p0(i64 16, ptr %2) #5
  call void @llvm.lifetime.end.p0(i64 4, ptr %1) #5
  ret i32 %46
}