; Function Attrs: nounwind uwtable
define internal range(i32 0, 2) i32 @test_wire_retry_integrity_tag() #0 {
  %1 = alloca %struct.PACKET, align 8
  %2 = alloca %struct.quic_pkt_hdr_st, align 8
  %3 = alloca [16 x i8], align 16
  call void @llvm.lifetime.start.p0(i64 16, ptr nonnull %1) #4
  call void @llvm.lifetime.start.p0(i64 88, ptr nonnull %2) #4
  call void @llvm.memset.p0.i64(ptr noundef nonnull align 8 dereferenceable(88) %2, i8 0, i64 88, i1 false)
  call void @llvm.lifetime.start.p0(i64 16, ptr nonnull %3) #4
  call void @llvm.memset.p0.i64(ptr noundef nonnull align 16 dereferenceable(16) %3, i8 0, i64 16, i1 false)
  store ptr @retry_encoded, ptr %1, align 8, !tbaa !16
  %4 = getelementptr inbounds nuw i8, ptr %1, i64 8
  store i64 36, ptr %4, align 8, !tbaa !18
  %5 = tail call i32 @test_true(ptr noundef nonnull @.str.5, i32 noundef 1542, ptr noundef nonnull @.str.176, i32 noundef 1) #4
  %.not = icmp eq i32 %5, 0
  br i1 %.not, label %27, label %6

6:                                                ; preds = %0
  %7 = call i32 @ossl_quic_wire_decode_pkt_hdr(ptr noundef nonnull %1, i64 noundef 0, i32 noundef 0, i32 noundef 0, ptr noundef nonnull %2, ptr noundef null, ptr noundef null) #4
  %8 = icmp ne i32 %7, 0
  %9 = zext i1 %8 to i32
  %10 = call i32 @test_true(ptr noundef nonnull @.str.5, i32 noundef 1545, ptr noundef nonnull @.str.177, i32 noundef %9) #4
  %.not1 = icmp eq i32 %10, 0
  br i1 %.not1, label %27, label %11

11:                                               ; preds = %6
  %12 = load i32, ptr %2, align 8
  %13 = and i32 %12, 255
  %14 = call i32 @test_int_eq(ptr noundef nonnull @.str.5, i32 noundef 1548, ptr noundef nonnull @.str.178, ptr noundef nonnull @.str.179, i32 noundef %13, i32 noundef 4) #4
  %.not2 = icmp eq i32 %14, 0
  br i1 %.not2, label %27, label %15

15:                                               ; preds = %11
  %16 = call i32 @ossl_quic_calculate_retry_integrity_tag(ptr noundef null, ptr noundef null, ptr noundef nonnull %2, ptr noundef nonnull @retry_orig_dcid, ptr noundef nonnull %3) #4
  %17 = icmp ne i32 %16, 0
  %18 = zext i1 %17 to i32
  %19 = call i32 @test_true(ptr noundef nonnull @.str.5, i32 noundef 1553, ptr noundef nonnull @.str.180, i32 noundef %18) #4
  %.not3 = icmp eq i32 %19, 0
  br i1 %.not3, label %27, label %20

20:                                               ; preds = %15
  %21 = call i32 @test_mem_eq(ptr noundef nonnull @.str.5, i32 noundef 1559, ptr noundef nonnull @.str.181, ptr noundef nonnull @.str.182, ptr noundef nonnull %3, i64 noundef 16, ptr noundef nonnull getelementptr inbounds nuw (i8, ptr @retry_encoded, i64 20), i64 noundef 16) #4
  %.not4 = icmp eq i32 %21, 0
  br i1 %.not4, label %27, label %22

22:                                               ; preds = %20
  %23 = call i32 @ossl_quic_validate_retry_integrity_tag(ptr noundef null, ptr noundef null, ptr noundef nonnull %2, ptr noundef nonnull @retry_orig_dcid) #4
  %24 = icmp ne i32 %23, 0
  %25 = zext i1 %24 to i32
  %26 = call i32 @test_true(ptr noundef nonnull @.str.5, i32 noundef 1563, ptr noundef nonnull @.str.183, i32 noundef %25) #4
  %.not5 = icmp ne i32 %26, 0
  %spec.select = zext i1 %.not5 to i32
  br label %27

27:                                               ; preds = %22, %20, %15, %11, %6, %0
  %.0 = phi i32 [ 0, %20 ], [ 0, %15 ], [ 0, %11 ], [ 0, %6 ], [ 0, %0 ], [ %spec.select, %22 ]
  call void @llvm.lifetime.end.p0(i64 16, ptr nonnull %3) #4
  call void @llvm.lifetime.end.p0(i64 88, ptr nonnull %2) #4
  call void @llvm.lifetime.end.p0(i64 16, ptr nonnull %1) #4
  ret i32 %.0
}